; ModuleID = '29/1257.c'
source_filename = "29/1257.c"
target datalayout = "e-m:e-p270:32:32-p271:32:32-p272:64:64-i64:64-f80:128-n8:16:32:64-S128"
target triple = "x86_64-pc-linux-gnu"

@.str = private unnamed_addr constant [3 x i8] c"%d\00", align 1
@.str.1 = private unnamed_addr constant [7 x i8] c"%.3lf\0A\00", align 1

; Function Attrs: noinline nounwind uwtable
define dso_local i32 @main() #0 {
  %1 = alloca i32, align 4
  %2 = alloca i32, align 4
  %3 = alloca i32, align 4
  %4 = alloca i32, align 4
  %5 = alloca i32, align 4
  %6 = alloca double, align 8
  %7 = alloca double, align 8
  %8 = alloca double, align 8
  %9 = alloca double, align 8
  %10 = alloca double, align 8
  %11 = alloca [100 x double], align 16
  store i32 0, i32* %1, align 4
  store double 1.000000e+00, double* %6, align 8
  store double 1.000000e+00, double* %7, align 8
  store double 0.000000e+00, double* %8, align 8
  %12 = call i32 (i8*, ...) @__isoc99_scanf(i8* getelementptr inbounds ([3 x i8], [3 x i8]* @.str, i64 0, i64 0), i32* %4)
  store i32 0, i32* %2, align 4
  br label %13

13:                                               ; preds = %45, %0
  %14 = load i32, i32* %2, align 4
  %15 = load i32, i32* %4, align 4
  %16 = icmp slt i32 %14, %15
  br i1 %16, label %17, label %48

17:                                               ; preds = %13
  store double 0.000000e+00, double* %8, align 8
  store double 1.000000e+00, double* %6, align 8
  store double 1.000000e+00, double* %7, align 8
  %18 = call i32 (i8*, ...) @__isoc99_scanf(i8* getelementptr inbounds ([3 x i8], [3 x i8]* @.str, i64 0, i64 0), i32* %5)
  store i32 1, i32* %3, align 4
  br label %19

19:                                               ; preds = %37, %17
  %20 = load i32, i32* %3, align 4
  %21 = load i32, i32* %5, align 4
  %22 = icmp sle i32 %20, %21
  br i1 %22, label %23, label %40

23:                                               ; preds = %19
  %24 = load double, double* %6, align 8
  %25 = load double, double* %7, align 8
  %26 = fadd double %24, %25
  %27 = load double, double* %7, align 8
  %28 = fdiv double %26, %27
  store double %28, double* %10, align 8
  %29 = load double, double* %8, align 8
  %30 = load double, double* %10, align 8
  %31 = fadd double %29, %30
  store double %31, double* %8, align 8
  %32 = load double, double* %7, align 8
  store double %32, double* %9, align 8
  %33 = load double, double* %6, align 8
  %34 = load double, double* %7, align 8
  %35 = fadd double %33, %34
  store double %35, double* %7, align 8
  %36 = load double, double* %9, align 8
  store double %36, double* %6, align 8
  br label %37

37:                                               ; preds = %23
  %38 = load i32, i32* %3, align 4
  %39 = add nsw i32 %38, 1
  store i32 %39, i32* %3, align 4
  br label %19

40:                                               ; preds = %19
  %41 = load double, double* %8, align 8
  %42 = load i32, i32* %2, align 4
  %43 = sext i32 %42 to i64
  %44 = getelementptr inbounds [100 x double], [100 x double]* %11, i64 0, i64 %43
  store double %41, double* %44, align 8
  br label %45

45:                                               ; preds = %40
  %46 = load i32, i32* %2, align 4
  %47 = add nsw i32 %46, 1
  store i32 %47, i32* %2, align 4
  br label %13

48:                                               ; preds = %13
  store i32 0, i32* %2, align 4
  br label %49

49:                                               ; preds = %59, %48
  %50 = load i32, i32* %2, align 4
  %51 = load i32, i32* %4, align 4
  %52 = icmp slt i32 %50, %51
  br i1 %52, label %53, label %62

53:                                               ; preds = %49
  %54 = load i32, i32* %2, align 4
  %55 = sext i32 %54 to i64
  %56 = getelementptr inbounds [100 x double], [100 x double]* %11, i64 0, i64 %55
  %57 = load double, double* %56, align 8
  %58 = call i32 (i8*, ...) @printf(i8* getelementptr inbounds ([7 x i8], [7 x i8]* @.str.1, i64 0, i64 0), double %57)
  br label %59

59:                                               ; preds = %53
  %60 = load i32, i32* %2, align 4
  %61 = add nsw i32 %60, 1
  store i32 %61, i32* %2, align 4
  br label %49

62:                                               ; preds = %49
  ret i32 0
}

declare dso_local i32 @__isoc99_scanf(i8*, ...) #1

declare dso_local i32 @printf(i8*, ...) #1


!llvm.module.flags = !{!0}
!llvm.ident = !{!1}

!0 = !{i32 1, !"wchar_size", i32 4}
!1 = !{!"clang version 10.0.0-4ubuntu1 "}
